; Function Attrs: nounwind sspstrong uwtable
define internal noundef i64 @p_gid_grant_privilege(i64 %0, i64 noundef returned %1) #1 {
  %3 = alloca i64, align 8
  call void @llvm.lifetime.start.p0(i64 8, ptr nonnull %3) #27
  store i64 0, ptr %3, align 8, !tbaa !43
  %4 = call fastcc i32 @obj2gid(i64 noundef %1, ptr noundef %3)
  %5 = load i64, ptr %3, align 8, !tbaa !43
  %.not.i = icmp eq i64 %5, 0
  br i1 %.not.i, label %obj2gid0.exit, label %6

6:                                                ; preds = %2
  %7 = tail call i64 @rb_str_resize(i64 noundef %5, i64 noundef 0) #27
  br label %obj2gid0.exit

obj2gid0.exit:                                    ; preds = %2, %6
  call void @llvm.lifetime.end.p0(i64 8, ptr nonnull %3) #27
  %8 = tail call fastcc i32 @rb_setegid_core(i32 noundef %4)
  ret i64 %1
}